; Function Attrs: nofree nounwind sspstrong uwtable
define dso_local i32 @get_osversion() local_unnamed_addr #1 {
entry:
  %uts_buf.i = alloca %struct.utsname, align 1
  %buf = alloca %struct.new_utsname, align 1
  %0 = load i32, ptr @get_osversion.osversion, align 4
  %tobool.not = icmp eq i32 %0, 0
  br i1 %tobool.not, label %if.end, label %return

if.end:                                           ; preds = %entry
  %1 = load ptr, ptr @qemu_uname_release, align 8
  %tobool1.not = icmp eq ptr %1, null
  br i1 %tobool1.not, label %if.else, label %land.lhs.true

land.lhs.true:                                    ; preds = %if.end
  %2 = load i8, ptr %1, align 1
  %tobool2.not = icmp eq i8 %2, 0
  br i1 %tobool2.not, label %if.else, label %while.cond.preheader.i.preheader

if.else:                                          ; preds = %land.lhs.true, %if.end
  call void @llvm.lifetime.start.p0(i64 390, ptr nonnull %uts_buf.i)
  %call.i = call i32 @uname(ptr noundef nonnull %uts_buf.i) #5
  %cmp.i = icmp slt i32 %call.i, 0
  br i1 %cmp.i, label %sys_uname.exit, label %if.end6

sys_uname.exit:                                   ; preds = %if.else
  call void @llvm.lifetime.end.p0(i64 390, ptr nonnull %uts_buf.i)
  br label %return

if.end6:                                          ; preds = %if.else
  call void @llvm.memcpy.p0.p0.i64(ptr noundef nonnull align 1 dereferenceable(65) %buf, ptr noundef nonnull align 1 dereferenceable(65) %uts_buf.i, i64 64, i1 false)
  %arrayidx.i = getelementptr inbounds nuw i8, ptr %buf, i64 64
  store i8 0, ptr %arrayidx.i, align 1
  %nodename.i = getelementptr inbounds nuw i8, ptr %buf, i64 65
  %nodename7.i = getelementptr inbounds nuw i8, ptr %uts_buf.i, i64 65
  call void @llvm.memcpy.p0.p0.i64(ptr noundef nonnull align 1 dereferenceable(65) %nodename.i, ptr noundef nonnull align 1 dereferenceable(65) %nodename7.i, i64 64, i1 false)
  %arrayidx16.i = getelementptr inbounds nuw i8, ptr %buf, i64 129
  store i8 0, ptr %arrayidx16.i, align 1
  %release.i = getelementptr inbounds nuw i8, ptr %buf, i64 130
  %release20.i = getelementptr inbounds nuw i8, ptr %uts_buf.i, i64 130
  call void @llvm.memcpy.p0.p0.i64(ptr noundef nonnull align 1 dereferenceable(65) %release.i, ptr noundef nonnull align 1 dereferenceable(65) %release20.i, i64 64, i1 false)
  %arrayidx29.i = getelementptr inbounds nuw i8, ptr %buf, i64 194
  store i8 0, ptr %arrayidx29.i, align 1
  %version.i = getelementptr inbounds nuw i8, ptr %buf, i64 195
  %version33.i = getelementptr inbounds nuw i8, ptr %uts_buf.i, i64 195
  call void @llvm.memcpy.p0.p0.i64(ptr noundef nonnull align 1 dereferenceable(65) %version.i, ptr noundef nonnull align 1 dereferenceable(65) %version33.i, i64 64, i1 false)
  %arrayidx42.i = getelementptr inbounds nuw i8, ptr %buf, i64 259
  store i8 0, ptr %arrayidx42.i, align 1
  %machine.i = getelementptr inbounds nuw i8, ptr %buf, i64 260
  %machine46.i = getelementptr inbounds nuw i8, ptr %uts_buf.i, i64 260
  call void @llvm.memcpy.p0.p0.i64(ptr noundef nonnull align 1 dereferenceable(65) %machine.i, ptr noundef nonnull align 1 dereferenceable(65) %machine46.i, i64 64, i1 false)
  %arrayidx55.i = getelementptr inbounds nuw i8, ptr %buf, i64 324
  store i8 0, ptr %arrayidx55.i, align 1
  %domainname.i = getelementptr inbounds nuw i8, ptr %buf, i64 325
  %domainname59.i = getelementptr inbounds nuw i8, ptr %uts_buf.i, i64 325
  call void @llvm.memcpy.p0.p0.i64(ptr noundef nonnull align 1 dereferenceable(65) %domainname.i, ptr noundef nonnull align 1 dereferenceable(65) %domainname59.i, i64 64, i1 false)
  %arrayidx68.i = getelementptr inbounds nuw i8, ptr %buf, i64 389
  store i8 0, ptr %arrayidx68.i, align 1
  call void @llvm.lifetime.end.p0(i64 390, ptr nonnull %uts_buf.i)
  br label %while.cond.preheader.i.preheader

while.cond.preheader.i.preheader:                 ; preds = %land.lhs.true, %if.end6
  %s.addr.015.i.ph = phi ptr [ %release.i, %if.end6 ], [ %1, %land.lhs.true ]
  br label %while.cond.preheader.i

while.cond.preheader.i:                           ; preds = %while.cond.preheader.i.preheader, %while.end.i
  %tmp.017.i = phi i32 [ %add7.i, %while.end.i ], [ 0, %while.cond.preheader.i.preheader ]
  %i.016.i = phi i32 [ %inc.i, %while.end.i ], [ 0, %while.cond.preheader.i.preheader ]
  %s.addr.015.i = phi ptr [ %spec.select.i, %while.end.i ], [ %s.addr.015.i.ph, %while.cond.preheader.i.preheader ]
  %3 = load i8, ptr %s.addr.015.i, align 1
  %4 = add i8 %3, -48
  %or.cond10.i = icmp ult i8 %4, 10
  br i1 %or.cond10.i, label %while.body.i, label %while.end.i

while.body.i:                                     ; preds = %while.cond.preheader.i, %while.body.i
  %5 = phi i8 [ %6, %while.body.i ], [ %3, %while.cond.preheader.i ]
  %n.012.i = phi i32 [ %add.i, %while.body.i ], [ 0, %while.cond.preheader.i ]
  %s.addr.111.i = phi ptr [ %incdec.ptr.i, %while.body.i ], [ %s.addr.015.i, %while.cond.preheader.i ]
  %mul.i = mul i32 %n.012.i, 10
  %narrow.i = add nsw i8 %5, -48
  %sub.i = zext nneg i8 %narrow.i to i32
  %add.i = add i32 %mul.i, %sub.i
  %incdec.ptr.i = getelementptr i8, ptr %s.addr.111.i, i64 1
  %6 = load i8, ptr %incdec.ptr.i, align 1
  %7 = add i8 %6, -48
  %or.cond.i = icmp ult i8 %7, 10
  br i1 %or.cond.i, label %while.body.i, label %while.end.i, !llvm.loop !5

while.end.i:                                      ; preds = %while.body.i, %while.cond.preheader.i
  %s.addr.1.lcssa.i = phi ptr [ %s.addr.015.i, %while.cond.preheader.i ], [ %incdec.ptr.i, %while.body.i ]
  %n.0.lcssa.i = phi i32 [ 0, %while.cond.preheader.i ], [ %add.i, %while.body.i ]
  %.lcssa.i = phi i8 [ %3, %while.cond.preheader.i ], [ %6, %while.body.i ]
  %shl.i = shl i32 %tmp.017.i, 8
  %add7.i = add i32 %n.0.lcssa.i, %shl.i
  %cmp9.i = icmp eq i8 %.lcssa.i, 46
  %spec.select.idx.i = zext i1 %cmp9.i to i64
  %spec.select.i = getelementptr i8, ptr %s.addr.1.lcssa.i, i64 %spec.select.idx.i
  %inc.i = add nuw nsw i32 %i.016.i, 1
  %exitcond.not.i = icmp eq i32 %inc.i, 3
  br i1 %exitcond.not.i, label %relstr_to_int.exit, label %while.cond.preheader.i, !llvm.loop !7

relstr_to_int.exit:                               ; preds = %while.end.i
  store i32 %add7.i, ptr @get_osversion.osversion, align 4
  br label %return

return:                                           ; preds = %sys_uname.exit, %entry, %relstr_to_int.exit
  %retval.0 = phi i32 [ %add7.i, %relstr_to_int.exit ], [ %0, %entry ], [ 0, %sys_uname.exit ]
  ret i32 %retval.0
}